target datalayout = "e-m:e-p270:32:32-p271:32:32-p272:64:64-i64:64-i128:128-f80:128-n8:16:32:64-S128"
target triple = "x86_64-pc-linux-gnu"

%struct.dtoa_context = type { [8 x ptr], ptr }
%struct.Bigint = type { ptr, i32, i32, i32, i32, [1 x i32] }

@pow5mult.p05 = internal constant [3 x i32] [i32 5, i32 25, i32 125], align 4

; Function Attrs: nounwind uwtable
define internal ptr @Balloc(ptr noundef %0, i32 noundef %1) #0 {
  %3 = alloca ptr, align 8
  %4 = alloca i32, align 4
  %5 = alloca i32, align 4
  %6 = alloca ptr, align 8
  store ptr %0, ptr %3, align 8, !tbaa !4
  store i32 %1, ptr %4, align 4, !tbaa !9
  call void @llvm.lifetime.start.p0(i64 4, ptr %5) #6
  call void @llvm.lifetime.start.p0(i64 8, ptr %6) #6
  %7 = load i32, ptr %4, align 4, !tbaa !9
  %8 = icmp sle i32 %7, 7
  br i1 %8, label %9, label %26

9:                                                ; preds = %2
  %10 = load ptr, ptr %3, align 8, !tbaa !4
  %11 = getelementptr inbounds nuw %struct.dtoa_context, ptr %10, i32 0, i32 0
  %12 = load i32, ptr %4, align 4, !tbaa !9
  %13 = sext i32 %12 to i64
  %14 = getelementptr inbounds [8 x ptr], ptr %11, i64 0, i64 %13
  %15 = load ptr, ptr %14, align 8, !tbaa !11
  store ptr %15, ptr %6, align 8, !tbaa !11
  %16 = icmp ne ptr %15, null
  br i1 %16, label %17, label %26

17:                                               ; preds = %9
  %18 = load ptr, ptr %6, align 8, !tbaa !11
  %19 = getelementptr inbounds nuw %struct.Bigint, ptr %18, i32 0, i32 0
  %20 = load ptr, ptr %19, align 8, !tbaa !17
  %21 = load ptr, ptr %3, align 8, !tbaa !4
  %22 = getelementptr inbounds nuw %struct.dtoa_context, ptr %21, i32 0, i32 0
  %23 = load i32, ptr %4, align 4, !tbaa !9
  %24 = sext i32 %23 to i64
  %25 = getelementptr inbounds [8 x ptr], ptr %22, i64 0, i64 %24
  store ptr %20, ptr %25, align 8, !tbaa !11
  br label %41

26:                                               ; preds = %9, %2
  %27 = load i32, ptr %4, align 4, !tbaa !9
  %28 = shl i32 1, %27
  store i32 %28, ptr %5, align 4, !tbaa !9
  %29 = load i32, ptr %5, align 4, !tbaa !9
  %30 = sub nsw i32 %29, 1
  %31 = sext i32 %30 to i64
  %32 = mul i64 %31, 4
  %33 = add i64 32, %32
  %34 = call ptr @jv_mem_alloc(i64 noundef %33)
  store ptr %34, ptr %6, align 8, !tbaa !11
  %35 = load i32, ptr %4, align 4, !tbaa !9
  %36 = load ptr, ptr %6, align 8, !tbaa !11
  %37 = getelementptr inbounds nuw %struct.Bigint, ptr %36, i32 0, i32 1
  store i32 %35, ptr %37, align 8, !tbaa !22
  %38 = load i32, ptr %5, align 4, !tbaa !9
  %39 = load ptr, ptr %6, align 8, !tbaa !11
  %40 = getelementptr inbounds nuw %struct.Bigint, ptr %39, i32 0, i32 2
  store i32 %38, ptr %40, align 4, !tbaa !58
  br label %41

41:                                               ; preds = %26, %17
  %42 = load ptr, ptr %6, align 8, !tbaa !11
  %43 = getelementptr inbounds nuw %struct.Bigint, ptr %42, i32 0, i32 4
  store i32 0, ptr %43, align 4, !tbaa !51
  %44 = load ptr, ptr %6, align 8, !tbaa !11
  %45 = getelementptr inbounds nuw %struct.Bigint, ptr %44, i32 0, i32 3
  store i32 0, ptr %45, align 8, !tbaa !52
  %46 = load ptr, ptr %6, align 8, !tbaa !11
  call void @llvm.lifetime.end.p0(i64 8, ptr %6) #6
  call void @llvm.lifetime.end.p0(i64 4, ptr %5) #6
  ret ptr %46
}

; Function Attrs: nounwind uwtable
define internal void @Bfree(ptr noundef %0, ptr noundef %1) #0 {
  %3 = alloca ptr, align 8
  %4 = alloca ptr, align 8
  store ptr %0, ptr %3, align 8, !tbaa !4
  store ptr %1, ptr %4, align 8, !tbaa !11
  %5 = load ptr, ptr %4, align 8, !tbaa !11
  %6 = icmp ne ptr %5, null
  br i1 %6, label %7, label %34

7:                                                ; preds = %2
  %8 = load ptr, ptr %4, align 8, !tbaa !11
  %9 = getelementptr inbounds nuw %struct.Bigint, ptr %8, i32 0, i32 1
  %10 = load i32, ptr %9, align 8, !tbaa !22
  %11 = icmp sgt i32 %10, 7
  br i1 %11, label %12, label %14

12:                                               ; preds = %7
  %13 = load ptr, ptr %4, align 8, !tbaa !11
  call void @jv_mem_free(ptr noundef %13)
  br label %33

14:                                               ; preds = %7
  %15 = load ptr, ptr %3, align 8, !tbaa !4
  %16 = getelementptr inbounds nuw %struct.dtoa_context, ptr %15, i32 0, i32 0
  %17 = load ptr, ptr %4, align 8, !tbaa !11
  %18 = getelementptr inbounds nuw %struct.Bigint, ptr %17, i32 0, i32 1
  %19 = load i32, ptr %18, align 8, !tbaa !22
  %20 = sext i32 %19 to i64
  %21 = getelementptr inbounds [8 x ptr], ptr %16, i64 0, i64 %20
  %22 = load ptr, ptr %21, align 8, !tbaa !11
  %23 = load ptr, ptr %4, align 8, !tbaa !11
  %24 = getelementptr inbounds nuw %struct.Bigint, ptr %23, i32 0, i32 0
  store ptr %22, ptr %24, align 8, !tbaa !17
  %25 = load ptr, ptr %4, align 8, !tbaa !11
  %26 = load ptr, ptr %3, align 8, !tbaa !4
  %27 = getelementptr inbounds nuw %struct.dtoa_context, ptr %26, i32 0, i32 0
  %28 = load ptr, ptr %4, align 8, !tbaa !11
  %29 = getelementptr inbounds nuw %struct.Bigint, ptr %28, i32 0, i32 1
  %30 = load i32, ptr %29, align 8, !tbaa !22
  %31 = sext i32 %30 to i64
  %32 = getelementptr inbounds [8 x ptr], ptr %27, i64 0, i64 %31
  store ptr %25, ptr %32, align 8, !tbaa !11
  br label %33

33:                                               ; preds = %14, %12
  br label %34

34:                                               ; preds = %33, %2
  ret void
}

; Function Attrs: nounwind uwtable
define internal ptr @i2b(ptr noundef %0, i32 noundef %1) #0 {
  %3 = alloca ptr, align 8
  %4 = alloca i32, align 4
  %5 = alloca ptr, align 8
  store ptr %0, ptr %3, align 8, !tbaa !4
  store i32 %1, ptr %4, align 4, !tbaa !9
  call void @llvm.lifetime.start.p0(i64 8, ptr %5) #6
  %6 = load ptr, ptr %3, align 8, !tbaa !4
  %7 = call ptr @Balloc(ptr noundef %6, i32 noundef 1)
  store ptr %7, ptr %5, align 8, !tbaa !11
  %8 = load i32, ptr %4, align 4, !tbaa !9
  %9 = load ptr, ptr %5, align 8, !tbaa !11
  %10 = getelementptr inbounds nuw %struct.Bigint, ptr %9, i32 0, i32 5
  %11 = getelementptr inbounds [1 x i32], ptr %10, i64 0, i64 0
  store i32 %8, ptr %11, align 8, !tbaa !9
  %12 = load ptr, ptr %5, align 8, !tbaa !11
  %13 = getelementptr inbounds nuw %struct.Bigint, ptr %12, i32 0, i32 4
  store i32 1, ptr %13, align 4, !tbaa !51
  %14 = load ptr, ptr %5, align 8, !tbaa !11
  call void @llvm.lifetime.end.p0(i64 8, ptr %5) #6
  ret ptr %14
}

; Function Attrs: nounwind uwtable
define internal ptr @pow5mult(ptr noundef %0, ptr noundef %1, i32 noundef %2) #0 {
  %4 = alloca ptr, align 8
  %5 = alloca ptr, align 8
  %6 = alloca ptr, align 8
  %7 = alloca i32, align 4
  %8 = alloca ptr, align 8
  %9 = alloca ptr, align 8
  %10 = alloca ptr, align 8
  %11 = alloca i32, align 4
  %12 = alloca i32, align 4
  store ptr %0, ptr %5, align 8, !tbaa !4
  store ptr %1, ptr %6, align 8, !tbaa !11
  store i32 %2, ptr %7, align 4, !tbaa !9
  call void @llvm.lifetime.start.p0(i64 8, ptr %8) #6
  call void @llvm.lifetime.start.p0(i64 8, ptr %9) #6
  call void @llvm.lifetime.start.p0(i64 8, ptr %10) #6
  call void @llvm.lifetime.start.p0(i64 4, ptr %11) #6
  %13 = load i32, ptr %7, align 4, !tbaa !9
  %14 = and i32 %13, 3
  store i32 %14, ptr %11, align 4, !tbaa !9
  %15 = icmp ne i32 %14, 0
  br i1 %15, label %16, label %25

16:                                               ; preds = %3
  %17 = load ptr, ptr %5, align 8, !tbaa !4
  %18 = load ptr, ptr %6, align 8, !tbaa !11
  %19 = load i32, ptr %11, align 4, !tbaa !9
  %20 = sub nsw i32 %19, 1
  %21 = sext i32 %20 to i64
  %22 = getelementptr inbounds [3 x i32], ptr @pow5mult.p05, i64 0, i64 %21
  %23 = load i32, ptr %22, align 4, !tbaa !9
  %24 = call ptr @multadd(ptr noundef %17, ptr noundef %18, i32 noundef %23, i32 noundef 0)
  store ptr %24, ptr %6, align 8, !tbaa !11
  br label %25

25:                                               ; preds = %16, %3
  %26 = load i32, ptr %7, align 4, !tbaa !9
  %27 = ashr i32 %26, 2
  store i32 %27, ptr %7, align 4, !tbaa !9
  %28 = icmp ne i32 %27, 0
  br i1 %28, label %31, label %29

29:                                               ; preds = %25
  %30 = load ptr, ptr %6, align 8, !tbaa !11
  store ptr %30, ptr %4, align 8
  store i32 1, ptr %12, align 4
  br label %79

31:                                               ; preds = %25
  %32 = load ptr, ptr %5, align 8, !tbaa !4
  %33 = getelementptr inbounds nuw %struct.dtoa_context, ptr %32, i32 0, i32 1
  %34 = load ptr, ptr %33, align 8, !tbaa !15
  store ptr %34, ptr %9, align 8, !tbaa !11
  %35 = icmp ne ptr %34, null
  br i1 %35, label %43, label %36

36:                                               ; preds = %31
  %37 = load ptr, ptr %5, align 8, !tbaa !4
  %38 = call ptr @i2b(ptr noundef %37, i32 noundef 625)
  %39 = load ptr, ptr %5, align 8, !tbaa !4
  %40 = getelementptr inbounds nuw %struct.dtoa_context, ptr %39, i32 0, i32 1
  store ptr %38, ptr %40, align 8, !tbaa !15
  store ptr %38, ptr %9, align 8, !tbaa !11
  %41 = load ptr, ptr %9, align 8, !tbaa !11
  %42 = getelementptr inbounds nuw %struct.Bigint, ptr %41, i32 0, i32 0
  store ptr null, ptr %42, align 8, !tbaa !17
  br label %43

43:                                               ; preds = %36, %31
  br label %44

44:                                               ; preds = %75, %43
  %45 = load i32, ptr %7, align 4, !tbaa !9
  %46 = and i32 %45, 1
  %47 = icmp ne i32 %46, 0
  br i1 %47, label %48, label %56

48:                                               ; preds = %44
  %49 = load ptr, ptr %5, align 8, !tbaa !4
  %50 = load ptr, ptr %6, align 8, !tbaa !11
  %51 = load ptr, ptr %9, align 8, !tbaa !11
  %52 = call ptr @mult(ptr noundef %49, ptr noundef %50, ptr noundef %51)
  store ptr %52, ptr %8, align 8, !tbaa !11
  %53 = load ptr, ptr %5, align 8, !tbaa !4
  %54 = load ptr, ptr %6, align 8, !tbaa !11
  call void @Bfree(ptr noundef %53, ptr noundef %54)
  %55 = load ptr, ptr %8, align 8, !tbaa !11
  store ptr %55, ptr %6, align 8, !tbaa !11
  br label %56

56:                                               ; preds = %48, %44
  %57 = load i32, ptr %7, align 4, !tbaa !9
  %58 = ashr i32 %57, 1
  store i32 %58, ptr %7, align 4, !tbaa !9
  %59 = icmp ne i32 %58, 0
  br i1 %59, label %61, label %60

60:                                               ; preds = %56
  br label %77

61:                                               ; preds = %56
  %62 = load ptr, ptr %9, align 8, !tbaa !11
  %63 = getelementptr inbounds nuw %struct.Bigint, ptr %62, i32 0, i32 0
  %64 = load ptr, ptr %63, align 8, !tbaa !17
  store ptr %64, ptr %10, align 8, !tbaa !11
  %65 = icmp ne ptr %64, null
  br i1 %65, label %75, label %66

66:                                               ; preds = %61
  %67 = load ptr, ptr %5, align 8, !tbaa !4
  %68 = load ptr, ptr %9, align 8, !tbaa !11
  %69 = load ptr, ptr %9, align 8, !tbaa !11
  %70 = call ptr @mult(ptr noundef %67, ptr noundef %68, ptr noundef %69)
  %71 = load ptr, ptr %9, align 8, !tbaa !11
  %72 = getelementptr inbounds nuw %struct.Bigint, ptr %71, i32 0, i32 0
  store ptr %70, ptr %72, align 8, !tbaa !17
  store ptr %70, ptr %10, align 8, !tbaa !11
  %73 = load ptr, ptr %10, align 8, !tbaa !11
  %74 = getelementptr inbounds nuw %struct.Bigint, ptr %73, i32 0, i32 0
  store ptr null, ptr %74, align 8, !tbaa !17
  br label %75

75:                                               ; preds = %66, %61
  %76 = load ptr, ptr %10, align 8, !tbaa !11
  store ptr %76, ptr %9, align 8, !tbaa !11
  br label %44

77:                                               ; preds = %60
  %78 = load ptr, ptr %6, align 8, !tbaa !11
  store ptr %78, ptr %4, align 8
  store i32 1, ptr %12, align 4
  br label %79

79:                                               ; preds = %77, %29
  call void @llvm.lifetime.end.p0(i64 4, ptr %11) #6
  call void @llvm.lifetime.end.p0(i64 8, ptr %10) #6
  call void @llvm.lifetime.end.p0(i64 8, ptr %9) #6
  call void @llvm.lifetime.end.p0(i64 8, ptr %8) #6
  %80 = load ptr, ptr %4, align 8
  ret ptr %80
}