; Function Attrs: nounwind uwtable
define internal fastcc ptr @pow5mult(ptr noundef captures(none) %0, ptr noundef %1, i32 noundef range(i32 1, -2147483648) %2) unnamed_addr #2 {
  %4 = and i32 %2, 3
  %.not = icmp eq i32 %4, 0
  br i1 %.not, label %11, label %5

5:                                                ; preds = %3
  %6 = add nsw i32 %4, -1
  %7 = zext nneg i32 %6 to i64
  %8 = getelementptr inbounds nuw [3 x i32], ptr @pow5mult.p05, i64 0, i64 %7
  %9 = load i32, ptr %8, align 4, !tbaa !37
  %10 = tail call fastcc ptr @multadd(ptr noundef %0, ptr noundef %1, i32 noundef %9, i32 noundef 0)
  br label %11

11:                                               ; preds = %5, %3
  %.028 = phi ptr [ %10, %5 ], [ %1, %3 ]
  %12 = lshr i32 %2, 2
  %.not36 = icmp samesign ult i32 %2, 4
  br i1 %.not36, label %.loopexit, label %13

13:                                               ; preds = %11
  %14 = getelementptr inbounds nuw i8, ptr %0, i64 64
  %15 = load ptr, ptr %14, align 8, !tbaa !4
  %.not37 = icmp eq ptr %15, null
  br i1 %.not37, label %16, label %.preheader

16:                                               ; preds = %13
  %17 = getelementptr inbounds nuw i8, ptr %0, i64 8
  %18 = load ptr, ptr %17, align 8, !tbaa !14
  %.not.i.i = icmp eq ptr %18, null
  br i1 %.not.i.i, label %21, label %19

19:                                               ; preds = %16
  %20 = load ptr, ptr %18, align 8, !tbaa !10
  store ptr %20, ptr %17, align 8, !tbaa !14
  br label %i2b.exit

21:                                               ; preds = %16
  %22 = tail call ptr @jv_mem_alloc(i64 noundef 36) #11
  %23 = getelementptr inbounds nuw i8, ptr %22, i64 8
  store i32 1, ptr %23, align 8, !tbaa !13
  %24 = getelementptr inbounds nuw i8, ptr %22, i64 12
  store i32 2, ptr %24, align 4, !tbaa !35
  br label %i2b.exit

i2b.exit:                                         ; preds = %19, %21
  %.0.i.i = phi ptr [ %18, %19 ], [ %22, %21 ]
  %25 = getelementptr inbounds nuw i8, ptr %.0.i.i, i64 20
  %26 = getelementptr inbounds nuw i8, ptr %.0.i.i, i64 16
  store i32 0, ptr %26, align 8, !tbaa !36
  %27 = getelementptr inbounds nuw i8, ptr %.0.i.i, i64 24
  store i32 625, ptr %27, align 8, !tbaa !37
  store i32 1, ptr %25, align 4, !tbaa !38
  store ptr %.0.i.i, ptr %14, align 8, !tbaa !4
  br label %.sink.split

.sink.split:                                      ; preds = %i2b.exit, %44
  %.sink = phi ptr [ %45, %44 ], [ %.0.i.i, %i2b.exit ]
  %.030.ph = phi i32 [ %42, %44 ], [ %12, %i2b.exit ]
  %.129.ph = phi ptr [ %.2, %44 ], [ %.028, %i2b.exit ]
  store ptr null, ptr %.sink, align 8, !tbaa !10
  br label %.preheader

.preheader:                                       ; preds = %13, %.sink.split
  %.030.ph41 = phi i32 [ %.030.ph, %.sink.split ], [ %12, %13 ]
  %.129.ph42 = phi ptr [ %.129.ph, %.sink.split ], [ %.028, %13 ]
  %.1.ph = phi ptr [ %.sink, %.sink.split ], [ %15, %13 ]
  br label %28

28:                                               ; preds = %.preheader, %41
  %.030 = phi i32 [ %42, %41 ], [ %.030.ph41, %.preheader ]
  %.129 = phi ptr [ %.2, %41 ], [ %.129.ph42, %.preheader ]
  %.1 = phi ptr [ %43, %41 ], [ %.1.ph, %.preheader ]
  %29 = and i32 %.030, 1
  %.not38 = icmp eq i32 %29, 0
  br i1 %.not38, label %Bfree.exit, label %30

30:                                               ; preds = %28
  %31 = tail call fastcc ptr @mult(ptr noundef %0, ptr noundef %.129, ptr noundef nonnull %.1)
  %.not.i = icmp eq ptr %.129, null
  br i1 %.not.i, label %Bfree.exit, label %32

32:                                               ; preds = %30
  %33 = getelementptr inbounds nuw i8, ptr %.129, i64 8
  %34 = load i32, ptr %33, align 8, !tbaa !13
  %35 = icmp sgt i32 %34, 7
  br i1 %35, label %36, label %37

36:                                               ; preds = %32
  tail call void @jv_mem_free(ptr noundef nonnull %.129) #11
  br label %Bfree.exit

37:                                               ; preds = %32
  %38 = sext i32 %34 to i64
  %39 = getelementptr inbounds [8 x ptr], ptr %0, i64 0, i64 %38
  %40 = load ptr, ptr %39, align 8, !tbaa !14
  store ptr %40, ptr %.129, align 8, !tbaa !10
  store ptr %.129, ptr %39, align 8, !tbaa !14
  br label %Bfree.exit

Bfree.exit:                                       ; preds = %37, %36, %30, %28
  %.2 = phi ptr [ %.129, %28 ], [ %31, %30 ], [ %31, %36 ], [ %31, %37 ]
  %.not39 = icmp samesign ult i32 %.030, 2
  br i1 %.not39, label %.loopexit, label %41

41:                                               ; preds = %Bfree.exit
  %42 = lshr i32 %.030, 1
  %43 = load ptr, ptr %.1, align 8, !tbaa !10
  %.not40 = icmp eq ptr %43, null
  br i1 %.not40, label %44, label %28

44:                                               ; preds = %41
  %45 = tail call fastcc ptr @mult(ptr noundef %0, ptr noundef nonnull %.1, ptr noundef nonnull %.1)
  store ptr %45, ptr %.1, align 8, !tbaa !10
  br label %.sink.split

.loopexit:                                        ; preds = %Bfree.exit, %11
  %.0 = phi ptr [ %.028, %11 ], [ %.2, %Bfree.exit ]
  ret ptr %.0
}